target datalayout = "e-m:e-p270:32:32-p271:32:32-p272:64:64-i64:64-i128:128-f80:128-n8:16:32:64-S128"
target triple = "x86_64-pc-linux-gnu"

%struct.lxb_html_tree = type { ptr, ptr, ptr, ptr, ptr, ptr, ptr, %struct.lxb_html_tree_pending_table_t, ptr, i8, i8, i8, i8, i8, i8, ptr, ptr, ptr, i32, i64 }
%struct.lxb_html_tree_pending_table_t = type { ptr, i8 }
%struct.lxb_html_document = type { %struct.lxb_dom_document, ptr, ptr, ptr, %struct.lxb_html_document_css_t, i8, ptr, i32, i32 }
%struct.lxb_dom_document = type { %struct.lxb_dom_node, i32, i32, ptr, ptr, ptr, ptr, ptr, ptr, ptr, ptr, ptr, ptr, ptr, ptr, ptr, ptr, ptr, ptr, ptr, i8, i8, i8 }
%struct.lxb_dom_node = type { %struct.lxb_dom_event_target, i64, i64, i64, ptr, ptr, ptr, ptr, ptr, ptr, ptr, i32, i64 }
%struct.lxb_dom_event_target = type { ptr }
%struct.lxb_html_document_css_t = type { ptr, ptr, ptr, ptr, ptr, ptr, ptr, ptr, i64 }
%struct.lexbor_array_t = type { ptr, i64, i64 }
%struct.lxb_html_tree_template_insertion_t = type { ptr }
%struct.lexbor_array_obj_t = type { ptr, i64, i64, i64 }

; Function Attrs: nounwind uwtable
define internal ptr @lexbor_array_obj_last(ptr noundef %0) #0 {
  %2 = alloca ptr, align 8
  %3 = alloca ptr, align 8
  store ptr %0, ptr %3, align 8
  %4 = load ptr, ptr %3, align 8
  %5 = getelementptr inbounds %struct.lexbor_array_obj_t, ptr %4, i32 0, i32 2
  %6 = load i64, ptr %5, align 8
  %7 = icmp eq i64 %6, 0
  br i1 %7, label %8, label %9

8:                                                ; preds = %1
  store ptr null, ptr %2, align 8
  br label %22

9:                                                ; preds = %1
  %10 = load ptr, ptr %3, align 8
  %11 = getelementptr inbounds %struct.lexbor_array_obj_t, ptr %10, i32 0, i32 0
  %12 = load ptr, ptr %11, align 8
  %13 = load ptr, ptr %3, align 8
  %14 = getelementptr inbounds %struct.lexbor_array_obj_t, ptr %13, i32 0, i32 2
  %15 = load i64, ptr %14, align 8
  %16 = sub i64 %15, 1
  %17 = load ptr, ptr %3, align 8
  %18 = getelementptr inbounds %struct.lexbor_array_obj_t, ptr %17, i32 0, i32 3
  %19 = load i64, ptr %18, align 8
  %20 = mul i64 %16, %19
  %21 = getelementptr inbounds i8, ptr %12, i64 %20
  store ptr %21, ptr %2, align 8
  br label %22

22:                                               ; preds = %9, %8
  %23 = load ptr, ptr %2, align 8
  ret ptr %23
}

; Function Attrs: nounwind uwtable
define internal i64 @lexbor_array_obj_length(ptr noundef %0) #0 {
  %2 = alloca ptr, align 8
  store ptr %0, ptr %2, align 8
  %3 = load ptr, ptr %2, align 8
  %4 = getelementptr inbounds %struct.lexbor_array_obj_t, ptr %3, i32 0, i32 2
  %5 = load i64, ptr %4, align 8
  ret i64 %5
}

; Function Attrs: nounwind uwtable
define internal ptr @lxb_html_tree_template_insertion_current(ptr noundef %0) #0 {
  %2 = alloca ptr, align 8
  %3 = alloca ptr, align 8
  %4 = alloca ptr, align 8
  store ptr %0, ptr %3, align 8
  %5 = load ptr, ptr %3, align 8
  %6 = getelementptr inbounds %struct.lxb_html_tree, ptr %5, i32 0, i32 6
  %7 = load ptr, ptr %6, align 8
  %8 = call i64 @lexbor_array_obj_length(ptr noundef %7)
  %9 = icmp eq i64 %8, 0
  br i1 %9, label %10, label %11

10:                                               ; preds = %1
  store ptr null, ptr %2, align 8
  br label %19

11:                                               ; preds = %1
  %12 = load ptr, ptr %3, align 8
  %13 = getelementptr inbounds %struct.lxb_html_tree, ptr %12, i32 0, i32 6
  %14 = load ptr, ptr %13, align 8
  %15 = call ptr @lexbor_array_obj_last(ptr noundef %14)
  store ptr %15, ptr %4, align 8
  %16 = load ptr, ptr %4, align 8
  %17 = getelementptr inbounds %struct.lxb_html_tree_template_insertion_t, ptr %16, i32 0, i32 0
  %18 = load ptr, ptr %17, align 8
  store ptr %18, ptr %2, align 8
  br label %19

19:                                               ; preds = %11, %10
  %20 = load ptr, ptr %2, align 8
  ret ptr %20
}

; Function Attrs: nounwind uwtable
define internal zeroext i1 @lxb_html_tree_node_is(ptr noundef %0, i64 noundef %1) #0 {
  %3 = alloca ptr, align 8
  %4 = alloca i64, align 8
  store ptr %0, ptr %3, align 8
  store i64 %1, ptr %4, align 8
  %5 = load ptr, ptr %3, align 8
  %6 = getelementptr inbounds %struct.lxb_dom_node, ptr %5, i32 0, i32 1
  %7 = load i64, ptr %6, align 8
  %8 = load i64, ptr %4, align 8
  %9 = icmp eq i64 %7, %8
  br i1 %9, label %10, label %15

10:                                               ; preds = %2
  %11 = load ptr, ptr %3, align 8
  %12 = getelementptr inbounds %struct.lxb_dom_node, ptr %11, i32 0, i32 3
  %13 = load i64, ptr %12, align 8
  %14 = icmp eq i64 %13, 2
  br label %15

15:                                               ; preds = %10, %2
  %16 = phi i1 [ false, %2 ], [ %14, %10 ]
  ret i1 %16
}

; Function Attrs: nounwind uwtable
define hidden void @lxb_html_tree_reset_insertion_mode_appropriately(ptr noundef %0) #0 {
  %2 = alloca ptr, align 8
  %3 = alloca ptr, align 8
  %4 = alloca i64, align 8
  %5 = alloca i8, align 1
  %6 = alloca ptr, align 8
  %7 = alloca i64, align 8
  %8 = alloca ptr, align 8
  store ptr %0, ptr %2, align 8
  %9 = load ptr, ptr %2, align 8
  %10 = getelementptr inbounds %struct.lxb_html_tree, ptr %9, i32 0, i32 4
  %11 = load ptr, ptr %10, align 8
  %12 = getelementptr inbounds %struct.lexbor_array_t, ptr %11, i32 0, i32 2
  %13 = load i64, ptr %12, align 8
  store i64 %13, ptr %4, align 8
  store i8 0, ptr %5, align 1
  %14 = load ptr, ptr %2, align 8
  %15 = getelementptr inbounds %struct.lxb_html_tree, ptr %14, i32 0, i32 4
  %16 = load ptr, ptr %15, align 8
  %17 = getelementptr inbounds %struct.lexbor_array_t, ptr %16, i32 0, i32 0
  %18 = load ptr, ptr %17, align 8
  store ptr %18, ptr %6, align 8
  br label %19

19:                                               ; preds = %160, %52, %1
  %20 = load i64, ptr %4, align 8
  %21 = icmp ne i64 %20, 0
  br i1 %21, label %22, label %161

22:                                               ; preds = %19
  %23 = load i64, ptr %4, align 8
  %24 = add i64 %23, -1
  store i64 %24, ptr %4, align 8
  %25 = load ptr, ptr %6, align 8
  %26 = load i64, ptr %4, align 8
  %27 = getelementptr inbounds ptr, ptr %25, i64 %26
  %28 = load ptr, ptr %27, align 8
  store ptr %28, ptr %3, align 8
  %29 = load i64, ptr %4, align 8
  %30 = icmp eq i64 %29, 0
  br i1 %30, label %31, label %41

31:                                               ; preds = %22
  store i8 1, ptr %5, align 1
  %32 = load ptr, ptr %2, align 8
  %33 = getelementptr inbounds %struct.lxb_html_tree, ptr %32, i32 0, i32 2
  %34 = load ptr, ptr %33, align 8
  %35 = icmp ne ptr %34, null
  br i1 %35, label %36, label %40

36:                                               ; preds = %31
  %37 = load ptr, ptr %2, align 8
  %38 = getelementptr inbounds %struct.lxb_html_tree, ptr %37, i32 0, i32 2
  %39 = load ptr, ptr %38, align 8
  store ptr %39, ptr %3, align 8
  br label %40

40:                                               ; preds = %36, %31
  br label %41

41:                                               ; preds = %40, %22
  %42 = load ptr, ptr %3, align 8
  %43 = getelementptr inbounds %struct.lxb_dom_node, ptr %42, i32 0, i32 3
  %44 = load i64, ptr %43, align 8
  %45 = icmp ne i64 %44, 2
  br i1 %45, label %46, label %53

46:                                               ; preds = %41
  %47 = load i8, ptr %5, align 1
  %48 = trunc i8 %47 to i1
  br i1 %48, label %49, label %52

49:                                               ; preds = %46
  %50 = load ptr, ptr %2, align 8
  %51 = getelementptr inbounds %struct.lxb_html_tree, ptr %50, i32 0, i32 15
  store ptr @lxb_html_tree_insertion_mode_in_body, ptr %51, align 8
  br label %161

52:                                               ; preds = %46
  br label %19

53:                                               ; preds = %41
  %54 = load ptr, ptr %3, align 8
  %55 = getelementptr inbounds %struct.lxb_dom_node, ptr %54, i32 0, i32 1
  %56 = load i64, ptr %55, align 8
  %57 = icmp eq i64 %56, 163
  br i1 %57, label %58, label %92

58:                                               ; preds = %53
  %59 = load i8, ptr %5, align 1
  %60 = trunc i8 %59 to i1
  br i1 %60, label %61, label %64

61:                                               ; preds = %58
  %62 = load ptr, ptr %2, align 8
  %63 = getelementptr inbounds %struct.lxb_html_tree, ptr %62, i32 0, i32 15
  store ptr @lxb_html_tree_insertion_mode_in_select, ptr %63, align 8
  br label %161

64:                                               ; preds = %58
  %65 = load i64, ptr %4, align 8
  store i64 %65, ptr %7, align 8
  br label %66

66:                                               ; preds = %91, %64
  %67 = load i64, ptr %7, align 8
  %68 = icmp eq i64 %67, 0
  br i1 %68, label %69, label %72

69:                                               ; preds = %66
  %70 = load ptr, ptr %2, align 8
  %71 = getelementptr inbounds %struct.lxb_html_tree, ptr %70, i32 0, i32 15
  store ptr @lxb_html_tree_insertion_mode_in_select, ptr %71, align 8
  br label %161

72:                                               ; preds = %66
  %73 = load i64, ptr %7, align 8
  %74 = add i64 %73, -1
  store i64 %74, ptr %7, align 8
  %75 = load ptr, ptr %6, align 8
  %76 = load i64, ptr %7, align 8
  %77 = getelementptr inbounds ptr, ptr %75, i64 %76
  %78 = load ptr, ptr %77, align 8
  store ptr %78, ptr %8, align 8
  %79 = load ptr, ptr %8, align 8
  %80 = call zeroext i1 @lxb_html_tree_node_is(ptr noundef %79, i64 noundef 179)
  br i1 %80, label %81, label %84

81:                                               ; preds = %72
  %82 = load ptr, ptr %2, align 8
  %83 = getelementptr inbounds %struct.lxb_html_tree, ptr %82, i32 0, i32 15
  store ptr @lxb_html_tree_insertion_mode_in_select, ptr %83, align 8
  br label %161

84:                                               ; preds = %72
  %85 = load ptr, ptr %8, align 8
  %86 = call zeroext i1 @lxb_html_tree_node_is(ptr noundef %85, i64 noundef 176)
  br i1 %86, label %87, label %90

87:                                               ; preds = %84
  %88 = load ptr, ptr %2, align 8
  %89 = getelementptr inbounds %struct.lxb_html_tree, ptr %88, i32 0, i32 15
  store ptr @lxb_html_tree_insertion_mode_in_select_in_table, ptr %89, align 8
  br label %161

90:                                               ; preds = %84
  br label %91

91:                                               ; preds = %90
  br label %66

92:                                               ; preds = %53
  %93 = load ptr, ptr %3, align 8
  %94 = getelementptr inbounds %struct.lxb_dom_node, ptr %93, i32 0, i32 1
  %95 = load i64, ptr %94, align 8
  switch i64 %95, label %153 [
    i64 178, label %96
    i64 183, label %96
    i64 187, label %105
    i64 177, label %108
    i64 182, label %108
    i64 184, label %108
    i64 35, label %111
    i64 41, label %114
    i64 176, label %117
    i64 179, label %120
    i64 97, label %125
    i64 31, label %134
    i64 89, label %137
    i64 101, label %140
  ]

96:                                               ; preds = %92, %92
  %97 = load i8, ptr %5, align 1
  %98 = trunc i8 %97 to i1
  %99 = zext i1 %98 to i32
  %100 = icmp eq i32 %99, 0
  br i1 %100, label %101, label %104

101:                                              ; preds = %96
  %102 = load ptr, ptr %2, align 8
  %103 = getelementptr inbounds %struct.lxb_html_tree, ptr %102, i32 0, i32 15
  store ptr @lxb_html_tree_insertion_mode_in_cell, ptr %103, align 8
  br label %161

104:                                              ; preds = %96
  br label %154

105:                                              ; preds = %92
  %106 = load ptr, ptr %2, align 8
  %107 = getelementptr inbounds %struct.lxb_html_tree, ptr %106, i32 0, i32 15
  store ptr @lxb_html_tree_insertion_mode_in_row, ptr %107, align 8
  br label %161

108:                                              ; preds = %92, %92, %92
  %109 = load ptr, ptr %2, align 8
  %110 = getelementptr inbounds %struct.lxb_html_tree, ptr %109, i32 0, i32 15
  store ptr @lxb_html_tree_insertion_mode_in_table_body, ptr %110, align 8
  br label %161

111:                                              ; preds = %92
  %112 = load ptr, ptr %2, align 8
  %113 = getelementptr inbounds %struct.lxb_html_tree, ptr %112, i32 0, i32 15
  store ptr @lxb_html_tree_insertion_mode_in_caption, ptr %113, align 8
  br label %161

114:                                              ; preds = %92
  %115 = load ptr, ptr %2, align 8
  %116 = getelementptr inbounds %struct.lxb_html_tree, ptr %115, i32 0, i32 15
  store ptr @lxb_html_tree_insertion_mode_in_column_group, ptr %116, align 8
  br label %161

117:                                              ; preds = %92
  %118 = load ptr, ptr %2, align 8
  %119 = getelementptr inbounds %struct.lxb_html_tree, ptr %118, i32 0, i32 15
  store ptr @lxb_html_tree_insertion_mode_in_table, ptr %119, align 8
  br label %161

120:                                              ; preds = %92
  %121 = load ptr, ptr %2, align 8
  %122 = call ptr @lxb_html_tree_template_insertion_current(ptr noundef %121)
  %123 = load ptr, ptr %2, align 8
  %124 = getelementptr inbounds %struct.lxb_html_tree, ptr %123, i32 0, i32 15
  store ptr %122, ptr %124, align 8
  br label %161

125:                                              ; preds = %92
  %126 = load i8, ptr %5, align 1
  %127 = trunc i8 %126 to i1
  %128 = zext i1 %127 to i32
  %129 = icmp eq i32 %128, 0
  br i1 %129, label %130, label %133

130:                                              ; preds = %125
  %131 = load ptr, ptr %2, align 8
  %132 = getelementptr inbounds %struct.lxb_html_tree, ptr %131, i32 0, i32 15
  store ptr @lxb_html_tree_insertion_mode_in_head, ptr %132, align 8
  br label %161

133:                                              ; preds = %125
  br label %154

134:                                              ; preds = %92
  %135 = load ptr, ptr %2, align 8
  %136 = getelementptr inbounds %struct.lxb_html_tree, ptr %135, i32 0, i32 15
  store ptr @lxb_html_tree_insertion_mode_in_body, ptr %136, align 8
  br label %161

137:                                              ; preds = %92
  %138 = load ptr, ptr %2, align 8
  %139 = getelementptr inbounds %struct.lxb_html_tree, ptr %138, i32 0, i32 15
  store ptr @lxb_html_tree_insertion_mode_in_frameset, ptr %139, align 8
  br label %161

140:                                              ; preds = %92
  %141 = load ptr, ptr %2, align 8
  %142 = getelementptr inbounds %struct.lxb_html_tree, ptr %141, i32 0, i32 1
  %143 = load ptr, ptr %142, align 8
  %144 = getelementptr inbounds %struct.lxb_html_document, ptr %143, i32 0, i32 2
  %145 = load ptr, ptr %144, align 8
  %146 = icmp eq ptr %145, null
  br i1 %146, label %147, label %150

147:                                              ; preds = %140
  %148 = load ptr, ptr %2, align 8
  %149 = getelementptr inbounds %struct.lxb_html_tree, ptr %148, i32 0, i32 15
  store ptr @lxb_html_tree_insertion_mode_before_head, ptr %149, align 8
  br label %161

150:                                              ; preds = %140
  %151 = load ptr, ptr %2, align 8
  %152 = getelementptr inbounds %struct.lxb_html_tree, ptr %151, i32 0, i32 15
  store ptr @lxb_html_tree_insertion_mode_after_head, ptr %152, align 8
  br label %161

153:                                              ; preds = %92
  br label %154

154:                                              ; preds = %153, %133, %104
  %155 = load i8, ptr %5, align 1
  %156 = trunc i8 %155 to i1
  br i1 %156, label %157, label %160

157:                                              ; preds = %154
  %158 = load ptr, ptr %2, align 8
  %159 = getelementptr inbounds %struct.lxb_html_tree, ptr %158, i32 0, i32 15
  store ptr @lxb_html_tree_insertion_mode_in_body, ptr %159, align 8
  br label %161

160:                                              ; preds = %154
  br label %19

161:                                              ; preds = %157, %150, %147, %137, %134, %130, %120, %117, %114, %111, %108, %105, %101, %87, %81, %69, %61, %49, %19
  ret void
}