; Function Attrs: nofree norecurse nosync nounwind memory(read, argmem: readwrite, inaccessiblemem: none) uwtable
define hidden void @lxb_html_tree_reset_insertion_mode_appropriately(ptr nocapture noundef %0) local_unnamed_addr #6 {
  %2 = getelementptr inbounds i8, ptr %0, i64 32
  %3 = load ptr, ptr %2, align 8
  %4 = getelementptr inbounds i8, ptr %3, i64 16
  %5 = load i64, ptr %4, align 8
  %6 = load ptr, ptr %3, align 8
  %.not81 = icmp eq i64 %5, 0
  br i1 %.not81, label %.loopexit, label %.lr.ph

.lr.ph:                                           ; preds = %1
  %7 = getelementptr inbounds i8, ptr %0, i64 16
  br label %8

8:                                                ; preds = %.lr.ph, %.backedge54
  %.04483 = phi i64 [ %5, %.lr.ph ], [ %9, %.backedge54 ]
  %.04582 = phi i8 [ 0, %.lr.ph ], [ %.1, %.backedge54 ]
  %9 = add i64 %.04483, -1
  %10 = getelementptr inbounds ptr, ptr %6, i64 %9
  %11 = load ptr, ptr %10, align 8
  %12 = icmp eq i64 %9, 0
  br i1 %12, label %13, label %15

13:                                               ; preds = %8
  %14 = load ptr, ptr %7, align 8
  %.not48 = icmp eq ptr %14, null
  %spec.select = select i1 %.not48, ptr %11, ptr %14
  br label %15

15:                                               ; preds = %13, %8
  %.1 = phi i8 [ %.04582, %8 ], [ 1, %13 ]
  %.0 = phi ptr [ %11, %8 ], [ %spec.select, %13 ]
  %16 = getelementptr inbounds i8, ptr %.0, i64 24
  %17 = load i64, ptr %16, align 8
  %.not49 = icmp eq i64 %17, 2
  br i1 %.not49, label %22, label %18

18:                                               ; preds = %15
  %19 = and i8 %.1, 1
  %.not52 = icmp eq i8 %19, 0
  br i1 %.not52, label %.backedge54, label %20

.backedge54:                                      ; preds = %18, %92
  br i1 %12, label %.loopexit, label %8

20:                                               ; preds = %18
  %21 = getelementptr inbounds i8, ptr %0, i64 88
  store ptr @lxb_html_tree_insertion_mode_in_body, ptr %21, align 8
  br label %.loopexit

22:                                               ; preds = %15
  %23 = getelementptr inbounds i8, ptr %.0, i64 8
  %24 = load i64, ptr %23, align 8
  switch i64 %24, label %92 [
    i64 163, label %25
    i64 178, label %47
    i64 183, label %47
    i64 187, label %52
    i64 177, label %54
    i64 182, label %54
    i64 184, label %54
    i64 35, label %56
    i64 41, label %58
    i64 176, label %60
    i64 179, label %62
    i64 97, label %74
    i64 31, label %79
    i64 89, label %81
    i64 101, label %83
  ]

25:                                               ; preds = %22
  %26 = and i8 %.1, 1
  %.not51 = icmp eq i8 %26, 0
  br i1 %.not51, label %.preheader, label %27

.preheader:                                       ; preds = %25
  br i1 %12, label %._crit_edge, label %.lr.ph85

27:                                               ; preds = %25
  %28 = getelementptr inbounds i8, ptr %0, i64 88
  store ptr @lxb_html_tree_insertion_mode_in_select, ptr %28, align 8
  br label %.loopexit

._crit_edge:                                      ; preds = %.backedge, %.preheader
  %29 = getelementptr inbounds i8, ptr %0, i64 88
  store ptr @lxb_html_tree_insertion_mode_in_select, ptr %29, align 8
  br label %.loopexit

.lr.ph85:                                         ; preds = %.preheader, %.backedge
  %.04384 = phi i64 [ %30, %.backedge ], [ %9, %.preheader ]
  %30 = add i64 %.04384, -1
  %31 = getelementptr inbounds ptr, ptr %6, i64 %30
  %32 = load ptr, ptr %31, align 8
  %33 = getelementptr inbounds i8, ptr %32, i64 8
  %34 = load i64, ptr %33, align 8
  switch i64 %34, label %.backedge [
    i64 179, label %lxb_html_tree_node_is.exit
    i64 176, label %40
  ]

lxb_html_tree_node_is.exit:                       ; preds = %.lr.ph85
  %35 = getelementptr inbounds i8, ptr %32, i64 24
  %36 = load i64, ptr %35, align 8
  %37 = icmp eq i64 %36, 2
  br i1 %37, label %38, label %.backedge

38:                                               ; preds = %lxb_html_tree_node_is.exit
  %39 = getelementptr inbounds i8, ptr %0, i64 88
  store ptr @lxb_html_tree_insertion_mode_in_select, ptr %39, align 8
  br label %.loopexit

40:                                               ; preds = %.lr.ph85
  %41 = getelementptr inbounds i8, ptr %32, i64 24
  %42 = load i64, ptr %41, align 8
  %43 = icmp eq i64 %42, 2
  br i1 %43, label %45, label %.backedge

.backedge:                                        ; preds = %lxb_html_tree_node_is.exit, %.lr.ph85, %40
  %44 = icmp eq i64 %30, 0
  br i1 %44, label %._crit_edge, label %.lr.ph85

45:                                               ; preds = %40
  %46 = getelementptr inbounds i8, ptr %0, i64 88
  store ptr @lxb_html_tree_insertion_mode_in_select_in_table, ptr %46, align 8
  br label %.loopexit

47:                                               ; preds = %22, %22
  %48 = and i8 %.1, 1
  %49 = icmp eq i8 %48, 0
  br i1 %49, label %50, label %.thread

50:                                               ; preds = %47
  %51 = getelementptr inbounds i8, ptr %0, i64 88
  store ptr @lxb_html_tree_insertion_mode_in_cell, ptr %51, align 8
  br label %.loopexit

52:                                               ; preds = %22
  %53 = getelementptr inbounds i8, ptr %0, i64 88
  store ptr @lxb_html_tree_insertion_mode_in_row, ptr %53, align 8
  br label %.loopexit

54:                                               ; preds = %22, %22, %22
  %55 = getelementptr inbounds i8, ptr %0, i64 88
  store ptr @lxb_html_tree_insertion_mode_in_table_body, ptr %55, align 8
  br label %.loopexit

56:                                               ; preds = %22
  %57 = getelementptr inbounds i8, ptr %0, i64 88
  store ptr @lxb_html_tree_insertion_mode_in_caption, ptr %57, align 8
  br label %.loopexit

58:                                               ; preds = %22
  %59 = getelementptr inbounds i8, ptr %0, i64 88
  store ptr @lxb_html_tree_insertion_mode_in_column_group, ptr %59, align 8
  br label %.loopexit

60:                                               ; preds = %22
  %61 = getelementptr inbounds i8, ptr %0, i64 88
  store ptr @lxb_html_tree_insertion_mode_in_table, ptr %61, align 8
  br label %.loopexit

62:                                               ; preds = %22
  %63 = getelementptr i8, ptr %0, i64 48
  %.val = load ptr, ptr %63, align 8
  %64 = getelementptr i8, ptr %.val, i64 16
  %.val.i = load i64, ptr %64, align 8
  %65 = icmp eq i64 %.val.i, 0
  br i1 %65, label %lxb_html_tree_template_insertion_current.exit, label %lexbor_array_obj_last.exit.i

lexbor_array_obj_last.exit.i:                     ; preds = %62
  %66 = load ptr, ptr %.val, align 8
  %67 = add i64 %.val.i, -1
  %68 = getelementptr inbounds i8, ptr %.val, i64 24
  %69 = load i64, ptr %68, align 8
  %70 = mul i64 %69, %67
  %71 = getelementptr inbounds i8, ptr %66, i64 %70
  %72 = load ptr, ptr %71, align 8
  br label %lxb_html_tree_template_insertion_current.exit

lxb_html_tree_template_insertion_current.exit:    ; preds = %62, %lexbor_array_obj_last.exit.i
  %.0.i = phi ptr [ %72, %lexbor_array_obj_last.exit.i ], [ null, %62 ]
  %73 = getelementptr inbounds i8, ptr %0, i64 88
  store ptr %.0.i, ptr %73, align 8
  br label %.loopexit

74:                                               ; preds = %22
  %75 = and i8 %.1, 1
  %76 = icmp eq i8 %75, 0
  br i1 %76, label %77, label %.thread

77:                                               ; preds = %74
  %78 = getelementptr inbounds i8, ptr %0, i64 88
  store ptr @lxb_html_tree_insertion_mode_in_head, ptr %78, align 8
  br label %.loopexit

79:                                               ; preds = %22
  %80 = getelementptr inbounds i8, ptr %0, i64 88
  store ptr @lxb_html_tree_insertion_mode_in_body, ptr %80, align 8
  br label %.loopexit

81:                                               ; preds = %22
  %82 = getelementptr inbounds i8, ptr %0, i64 88
  store ptr @lxb_html_tree_insertion_mode_in_frameset, ptr %82, align 8
  br label %.loopexit

83:                                               ; preds = %22
  %84 = getelementptr inbounds i8, ptr %0, i64 8
  %85 = load ptr, ptr %84, align 8
  %86 = getelementptr inbounds i8, ptr %85, i64 264
  %87 = load ptr, ptr %86, align 8
  %88 = icmp eq ptr %87, null
  %89 = getelementptr inbounds i8, ptr %0, i64 88
  br i1 %88, label %90, label %91

90:                                               ; preds = %83
  store ptr @lxb_html_tree_insertion_mode_before_head, ptr %89, align 8
  br label %.loopexit

91:                                               ; preds = %83
  store ptr @lxb_html_tree_insertion_mode_after_head, ptr %89, align 8
  br label %.loopexit

92:                                               ; preds = %22
  %.pre = and i8 %.1, 1
  %.not50 = icmp eq i8 %.pre, 0
  br i1 %.not50, label %.backedge54, label %.thread

.thread:                                          ; preds = %92, %47, %74
  %93 = getelementptr inbounds i8, ptr %0, i64 88
  store ptr @lxb_html_tree_insertion_mode_in_body, ptr %93, align 8
  br label %.loopexit

.loopexit:                                        ; preds = %.backedge54, %1, %.thread, %91, %90, %81, %79, %77, %lxb_html_tree_template_insertion_current.exit, %60, %58, %56, %54, %52, %50, %45, %38, %._crit_edge, %27, %20
  ret void
}